; Function Attrs: nounwind uwtable
define ptr @l_Lake_expandBinders(ptr noundef readonly captures(none) %0, ptr noundef %1, ptr noundef %2) local_unnamed_addr #0 {
lean_nat_lt.exit:
  %3 = getelementptr i8, ptr %0, i64 8
  %.val = load i64, ptr %3, align 8, !tbaa !13
  %.mask = and i64 %.val, 9223372036854775807
  %.not = icmp eq i64 %.mask, 0
  br i1 %.not, label %lean_dec.exit33, label %lean_dec.exit

lean_dec.exit33:                                  ; preds = %lean_nat_lt.exit
  %4 = ptrtoint ptr %1 to i64
  %5 = and i64 %4, 1
  %.not46 = icmp eq i64 %5, 0
  br i1 %.not46, label %6, label %lean_dec.exit32

6:                                                ; preds = %lean_dec.exit33
  %7 = load i32, ptr %1, align 4, !tbaa !4
  %8 = icmp sgt i32 %7, 1
  br i1 %8, label %9, label %11, !prof !9

9:                                                ; preds = %6
  %10 = add nsw i32 %7, -1
  store i32 %10, ptr %1, align 4, !tbaa !4
  br label %lean_dec.exit32

11:                                               ; preds = %6
  %.not.i34 = icmp eq i32 %7, 0
  br i1 %.not.i34, label %lean_dec.exit32, label %12

12:                                               ; preds = %11
  tail call void @lean_dec_ref_cold(ptr noundef nonnull %1) #5
  br label %lean_dec.exit32

lean_dec.exit32:                                  ; preds = %12, %11, %9, %lean_dec.exit33
  %13 = load ptr, ptr @l_Lake_expandBinder___closed__1, align 8, !tbaa !11
  tail call void @lean_inc_heartbeat() #5
  %14 = tail call noalias ptr @mi_malloc_small(i64 noundef 24) #5
  %15 = icmp eq ptr %14, null
  br i1 %15, label %16, label %lean_alloc_ctor.exit

16:                                               ; preds = %lean_dec.exit32
  tail call void @lean_internal_panic_out_of_memory() #6
  unreachable

lean_alloc_ctor.exit:                             ; preds = %lean_dec.exit32
  %17 = getelementptr inbounds nuw i8, ptr %14, i64 4
  store i32 1, ptr %14, align 4, !tbaa !4
  store i32 131096, ptr %17, align 4
  %18 = getelementptr inbounds nuw i8, ptr %14, i64 8
  store ptr %13, ptr %18, align 8, !tbaa !11
  %19 = getelementptr inbounds nuw i8, ptr %14, i64 16
  store ptr %2, ptr %19, align 8, !tbaa !11
  br label %22

lean_dec.exit:                                    ; preds = %lean_nat_lt.exit
  %20 = load ptr, ptr @l_Lake_expandBinder___closed__1, align 8, !tbaa !11
  %21 = tail call ptr @l_Array_foldlMUnsafe_fold___at_Lake_expandBinders___spec__1(ptr noundef nonnull %0, i64 noundef 0, i64 noundef %.mask, ptr noundef %20, ptr noundef %1, ptr noundef %2)
  br label %22

22:                                               ; preds = %lean_dec.exit, %lean_alloc_ctor.exit
  %.0 = phi ptr [ %14, %lean_alloc_ctor.exit ], [ %21, %lean_dec.exit ]
  ret ptr %.0
}